; Function Attrs: mustprogress nounwind uwtable
define dso_local void @_ZN4llvm13LPPassManager17dumpPassStructureEj(ptr noundef nonnull align 8 dereferenceable(513) %0, i32 noundef %1) unnamed_addr #0 align 2 {
  %3 = tail call noundef nonnull align 8 dereferenceable(96) ptr @_ZN4llvm4errsEv() #18
  %4 = shl i32 %1, 1
  %5 = tail call noundef nonnull align 8 dereferenceable(48) ptr @_ZN4llvm11raw_ostream6indentEj(ptr noundef nonnull align 8 dereferenceable(48) %3, i32 noundef %4) #18
  %6 = getelementptr inbounds nuw i8, ptr %5, i64 24
  %7 = load ptr, ptr %6, align 8
  %8 = getelementptr inbounds nuw i8, ptr %5, i64 32
  %9 = load ptr, ptr %8, align 8
  %10 = ptrtoint ptr %7 to i64
  %11 = ptrtoint ptr %9 to i64
  %12 = sub i64 %10, %11
  %13 = icmp ult i64 %12, 18
  br i1 %13, label %14, label %16

14:                                               ; preds = %2
  %15 = tail call noundef nonnull align 8 dereferenceable(48) ptr @_ZN4llvm11raw_ostream5writeEPKcm(ptr noundef nonnull align 8 dereferenceable(48) %5, ptr noundef nonnull @.str.3, i64 noundef 18) #18
  br label %_ZN4llvm11raw_ostreamlsEPKc.exit

16:                                               ; preds = %2
  tail call void @llvm.memcpy.p0.p0.i64(ptr noundef nonnull align 1 dereferenceable(18) %9, ptr noundef nonnull align 1 dereferenceable(18) @.str.3, i64 18, i1 false)
  %17 = load ptr, ptr %8, align 8
  %18 = getelementptr inbounds i8, ptr %17, i64 18
  store ptr %18, ptr %8, align 8
  br label %_ZN4llvm11raw_ostreamlsEPKc.exit

_ZN4llvm11raw_ostreamlsEPKc.exit:                 ; preds = %14, %16
  %19 = getelementptr inbounds i8, ptr %0, i64 48
  %20 = tail call noundef i64 @_ZNK4llvm15SmallVectorBaseIjE4sizeEv(ptr noundef nonnull align 8 dereferenceable(16) %19) #18
  %21 = and i64 %20, 4294967295
  %.not = icmp eq i64 %21, 0
  br i1 %.not, label %._crit_edge, label %.lr.ph

.lr.ph:                                           ; preds = %_ZN4llvm11raw_ostreamlsEPKc.exit
  %22 = getelementptr inbounds i8, ptr %0, i64 32
  %23 = add i32 %1, 1
  br label %24

24:                                               ; preds = %.lr.ph, %24
  %indvars.iv = phi i64 [ 0, %.lr.ph ], [ %indvars.iv.next, %24 ]
  %25 = load ptr, ptr %19, align 8
  %26 = getelementptr inbounds ptr, ptr %25, i64 %indvars.iv
  %27 = load ptr, ptr %26, align 8
  %28 = load ptr, ptr %27, align 8
  %29 = getelementptr inbounds i8, ptr %28, i64 128
  %30 = load ptr, ptr %29, align 8
  tail call void %30(ptr noundef nonnull align 8 dereferenceable(28) %27, i32 noundef %23) #18
  tail call void @_ZNK4llvm13PMDataManager12dumpLastUsesEPNS_4PassEj(ptr noundef nonnull align 8 dereferenceable(380) %22, ptr noundef nonnull %27, i32 noundef %23) #18
  %indvars.iv.next = add nuw nsw i64 %indvars.iv, 1
  %31 = tail call noundef i64 @_ZNK4llvm15SmallVectorBaseIjE4sizeEv(ptr noundef nonnull align 8 dereferenceable(16) %19) #18
  %32 = and i64 %31, 4294967295
  %33 = icmp ult i64 %indvars.iv.next, %32
  br i1 %33, label %24, label %._crit_edge, !llvm.loop !92

._crit_edge:                                      ; preds = %24, %_ZN4llvm11raw_ostreamlsEPKc.exit
  ret void
}